target datalayout = "e-m:e-p270:32:32-p271:32:32-p272:64:64-i64:64-i128:128-f80:128-n8:16:32:64-S128"
target triple = "x86_64-pc-linux-gnu"

%struct._object = type { %union.anon, ptr }
%union.anon = type { i64 }
%struct.PyVarObject = type { %struct._object, i64 }
%struct._typeobject = type { %struct.PyVarObject, ptr, i64, i64, ptr, i64, ptr, ptr, ptr, ptr, ptr, ptr, ptr, ptr, ptr, ptr, ptr, ptr, ptr, i64, ptr, ptr, ptr, ptr, i64, ptr, ptr, ptr, ptr, ptr, ptr, ptr, ptr, ptr, i64, ptr, ptr, ptr, ptr, ptr, ptr, ptr, ptr, ptr, ptr, ptr, i32, ptr, ptr, i8, i16 }
%struct._functools_state = type { ptr, ptr, ptr, ptr, ptr, ptr }
%struct.anon = type { i32, i32 }
%struct.PyModuleObject = type { %struct._object, ptr, ptr, ptr, ptr, ptr }

@_Py_tss_tstate = external thread_local global ptr, align 8
@PyBaseObject_Type = external global %struct._typeobject, align 8
@.str.10 = private unnamed_addr constant [12 x i8] c"Placeholder\00", align 1
@placeholder_type_spec = internal global { ptr, i32, i32, i32, [4 x i8], ptr } { ptr @.str.11, i32 16, i32 0, i32 16640, [4 x i8] zeroinitializer, ptr @placeholder_type_slots }, align 8
@partial_type_spec = internal global { ptr, i32, i32, i32, [4 x i8], ptr } { ptr @.str.17, i32 80, i32 0, i32 19712, [4 x i8] zeroinitializer, ptr @partial_type_slots }, align 8
@lru_cache_type_spec = internal global { ptr, i32, i32, i32, [4 x i8], ptr } { ptr @.str.46, i32 152, i32 0, i32 147712, [4 x i8] zeroinitializer, ptr @lru_cache_type_slots }, align 8
@keyobject_type_spec = internal global { ptr, i32, i32, i32, [4 x i8], ptr } { ptr @.str.64, i32 32, i32 0, i32 16768, [4 x i8] zeroinitializer, ptr @keyobject_type_slots }, align 8
@lru_list_elem_type_spec = internal global { ptr, i32, i32, i32, [4 x i8], ptr } { ptr @.str.75, i32 56, i32 0, i32 384, [4 x i8] zeroinitializer, ptr @lru_list_elem_type_slots }, align 8

; Function Attrs: inlinehint nounwind uwtable
define internal i32 @PyType_HasFeature(ptr noundef %0, i64 noundef %1) #3 {
  %3 = alloca ptr, align 8
  %4 = alloca i64, align 8
  %5 = alloca i64, align 8
  store ptr %0, ptr %3, align 8, !tbaa !26
  store i64 %1, ptr %4, align 8, !tbaa !27
  call void @llvm.lifetime.start.p0(i64 8, ptr %5) #8
  %6 = load ptr, ptr %3, align 8, !tbaa !26
  %7 = getelementptr inbounds nuw %struct._typeobject, ptr %6, i32 0, i32 19
  %8 = load i64, ptr %7, align 8, !tbaa !130
  store i64 %8, ptr %5, align 8, !tbaa !27
  %9 = load i64, ptr %5, align 8, !tbaa !27
  %10 = load i64, ptr %4, align 8, !tbaa !27
  %11 = and i64 %9, %10
  %12 = icmp ne i64 %11, 0
  %13 = zext i1 %12 to i32
  call void @llvm.lifetime.end.p0(i64 8, ptr %5) #8
  ret i32 %13
}

; Function Attrs: inlinehint nounwind uwtable
define internal ptr @_Py_TYPE(ptr noundef %0) #3 {
  %2 = alloca ptr, align 8
  store ptr %0, ptr %2, align 8, !tbaa !4
  %3 = load ptr, ptr %2, align 8, !tbaa !4
  %4 = getelementptr inbounds nuw %struct._object, ptr %3, i32 0, i32 1
  %5 = load ptr, ptr %4, align 8, !tbaa !129
  ret ptr %5
}

; Function Attrs: inlinehint nounwind uwtable
define internal i64 @_PyVectorcall_NARGS(i64 noundef %0) #3 {
  %2 = alloca i64, align 8
  store i64 %0, ptr %2, align 8, !tbaa !27
  %3 = load i64, ptr %2, align 8, !tbaa !27
  %4 = and i64 %3, 9223372036854775807
  ret i64 %4
}

; Function Attrs: inlinehint nounwind uwtable
define internal ptr @_PyVectorcall_FunctionInline(ptr noundef %0) #3 {
  %2 = alloca ptr, align 8
  %3 = alloca ptr, align 8
  %4 = alloca ptr, align 8
  %5 = alloca i32, align 4
  %6 = alloca i64, align 8
  %7 = alloca ptr, align 8
  store ptr %0, ptr %3, align 8, !tbaa !4
  call void @llvm.lifetime.start.p0(i64 8, ptr %4) #8
  %8 = load ptr, ptr %3, align 8, !tbaa !4
  %9 = call ptr @_Py_TYPE(ptr noundef %8)
  store ptr %9, ptr %4, align 8, !tbaa !26
  %10 = load ptr, ptr %4, align 8, !tbaa !26
  %11 = call i32 @PyType_HasFeature(ptr noundef %10, i64 noundef 2048)
  %12 = icmp ne i32 %11, 0
  br i1 %12, label %14, label %13

13:                                               ; preds = %1
  store ptr null, ptr %2, align 8
  store i32 1, ptr %5, align 4
  br label %22

14:                                               ; preds = %1
  call void @llvm.lifetime.start.p0(i64 8, ptr %6) #8
  %15 = load ptr, ptr %4, align 8, !tbaa !26
  %16 = getelementptr inbounds nuw %struct._typeobject, ptr %15, i32 0, i32 5
  %17 = load i64, ptr %16, align 8, !tbaa !123
  store i64 %17, ptr %6, align 8, !tbaa !27
  call void @llvm.lifetime.start.p0(i64 8, ptr %7) #8
  %18 = load ptr, ptr %3, align 8, !tbaa !4
  %19 = load i64, ptr %6, align 8, !tbaa !27
  %20 = getelementptr i8, ptr %18, i64 %19
  call void @llvm.memcpy.p0.p0.i64(ptr align 8 %7, ptr align 1 %20, i64 8, i1 false)
  %21 = load ptr, ptr %7, align 8, !tbaa !9
  store ptr %21, ptr %2, align 8
  store i32 1, ptr %5, align 4
  call void @llvm.lifetime.end.p0(i64 8, ptr %7) #8
  call void @llvm.lifetime.end.p0(i64 8, ptr %6) #8
  br label %22

22:                                               ; preds = %14, %13
  call void @llvm.lifetime.end.p0(i64 8, ptr %4) #8
  %23 = load ptr, ptr %2, align 8
  ret ptr %23
}

; Function Attrs: alwaysinline nounwind uwtable
define internal i32 @_Py_IsImmortal(ptr noundef %0) #4 {
  %2 = alloca ptr, align 8
  store ptr %0, ptr %2, align 8, !tbaa !4
  %3 = load ptr, ptr %2, align 8, !tbaa !4
  %4 = getelementptr inbounds nuw %struct._object, ptr %3, i32 0, i32 0
  %5 = getelementptr inbounds nuw %struct.anon, ptr %4, i32 0, i32 0
  %6 = load i32, ptr %5, align 8, !tbaa !32
  %7 = icmp slt i32 %6, 0
  %8 = zext i1 %7 to i32
  ret i32 %8
}

; Function Attrs: inlinehint nounwind uwtable
define internal ptr @_PyObject_VectorcallTstate(ptr noundef %0, ptr noundef %1, ptr noundef %2, i64 noundef %3, ptr noundef %4) #3 {
  %6 = alloca ptr, align 8
  %7 = alloca ptr, align 8
  %8 = alloca ptr, align 8
  %9 = alloca ptr, align 8
  %10 = alloca i64, align 8
  %11 = alloca ptr, align 8
  %12 = alloca ptr, align 8
  %13 = alloca ptr, align 8
  %14 = alloca i64, align 8
  %15 = alloca i32, align 4
  store ptr %0, ptr %7, align 8, !tbaa !115
  store ptr %1, ptr %8, align 8, !tbaa !4
  store ptr %2, ptr %9, align 8, !tbaa !22
  store i64 %3, ptr %10, align 8, !tbaa !27
  store ptr %4, ptr %11, align 8, !tbaa !4
  call void @llvm.lifetime.start.p0(i64 8, ptr %12) #8
  call void @llvm.lifetime.start.p0(i64 8, ptr %13) #8
  %16 = load ptr, ptr %8, align 8, !tbaa !4
  %17 = call ptr @_PyVectorcall_FunctionInline(ptr noundef %16)
  store ptr %17, ptr %12, align 8, !tbaa !9
  %18 = load ptr, ptr %12, align 8, !tbaa !9
  %19 = icmp eq ptr %18, null
  br i1 %19, label %20, label %29

20:                                               ; preds = %5
  call void @llvm.lifetime.start.p0(i64 8, ptr %14) #8
  %21 = load i64, ptr %10, align 8, !tbaa !27
  %22 = call i64 @_PyVectorcall_NARGS(i64 noundef %21)
  store i64 %22, ptr %14, align 8, !tbaa !27
  %23 = load ptr, ptr %7, align 8, !tbaa !115
  %24 = load ptr, ptr %8, align 8, !tbaa !4
  %25 = load ptr, ptr %9, align 8, !tbaa !22
  %26 = load i64, ptr %14, align 8, !tbaa !27
  %27 = load ptr, ptr %11, align 8, !tbaa !4
  %28 = call ptr @_PyObject_MakeTpCall(ptr noundef %23, ptr noundef %24, ptr noundef %25, i64 noundef %26, ptr noundef %27)
  store ptr %28, ptr %6, align 8
  store i32 1, ptr %15, align 4
  call void @llvm.lifetime.end.p0(i64 8, ptr %14) #8
  br label %40

29:                                               ; preds = %5
  %30 = load ptr, ptr %12, align 8, !tbaa !9
  %31 = load ptr, ptr %8, align 8, !tbaa !4
  %32 = load ptr, ptr %9, align 8, !tbaa !22
  %33 = load i64, ptr %10, align 8, !tbaa !27
  %34 = load ptr, ptr %11, align 8, !tbaa !4
  %35 = call ptr %30(ptr noundef %31, ptr noundef %32, i64 noundef %33, ptr noundef %34)
  store ptr %35, ptr %13, align 8, !tbaa !4
  %36 = load ptr, ptr %7, align 8, !tbaa !115
  %37 = load ptr, ptr %8, align 8, !tbaa !4
  %38 = load ptr, ptr %13, align 8, !tbaa !4
  %39 = call ptr @_Py_CheckFunctionResult(ptr noundef %36, ptr noundef %37, ptr noundef %38, ptr noundef null)
  store ptr %39, ptr %6, align 8
  store i32 1, ptr %15, align 4
  br label %40

40:                                               ; preds = %29, %20
  call void @llvm.lifetime.end.p0(i64 8, ptr %13) #8
  call void @llvm.lifetime.end.p0(i64 8, ptr %12) #8
  %41 = load ptr, ptr %6, align 8
  ret ptr %41
}

; Function Attrs: inlinehint nounwind uwtable
define internal ptr @_PyThreadState_GET() #3 {
  %1 = call align 8 ptr @llvm.threadlocal.address.p0(ptr align 8 @_Py_tss_tstate)
  %2 = load ptr, ptr %1, align 8, !tbaa !115
  ret ptr %2
}

; Function Attrs: inlinehint nounwind uwtable
define internal ptr @_PyModule_GetState(ptr noundef %0) #3 {
  %2 = alloca ptr, align 8
  store ptr %0, ptr %2, align 8, !tbaa !4
  %3 = load ptr, ptr %2, align 8, !tbaa !4
  %4 = getelementptr inbounds nuw %struct.PyModuleObject, ptr %3, i32 0, i32 3
  %5 = load ptr, ptr %4, align 8, !tbaa !120
  ret ptr %5
}

; Function Attrs: alwaysinline nounwind uwtable
define internal void @Py_DECREF(ptr noundef %0) #4 {
  %2 = alloca ptr, align 8
  store ptr %0, ptr %2, align 8, !tbaa !4
  %3 = load ptr, ptr %2, align 8, !tbaa !4
  %4 = call i32 @_Py_IsImmortal(ptr noundef %3)
  %5 = icmp ne i32 %4, 0
  br i1 %5, label %6, label %7

6:                                                ; preds = %1
  br label %16

7:                                                ; preds = %1
  %8 = load ptr, ptr %2, align 8, !tbaa !4
  %9 = getelementptr inbounds nuw %struct._object, ptr %8, i32 0, i32 0
  %10 = getelementptr inbounds nuw %struct.anon, ptr %9, i32 0, i32 0
  %11 = load i32, ptr %10, align 8, !tbaa !32
  %12 = add i32 %11, -1
  store i32 %12, ptr %10, align 8, !tbaa !32
  %13 = icmp eq i32 %12, 0
  br i1 %13, label %14, label %16

14:                                               ; preds = %7
  %15 = load ptr, ptr %2, align 8, !tbaa !4
  call void @_Py_Dealloc(ptr noundef %15)
  br label %16

16:                                               ; preds = %6, %14, %7
  ret void
}

; Function Attrs: inlinehint nounwind uwtable
define internal ptr @_PyObject_CallNoArgs(ptr noundef %0) #3 {
  %2 = alloca ptr, align 8
  %3 = alloca ptr, align 8
  store ptr %0, ptr %2, align 8, !tbaa !4
  call void @llvm.lifetime.start.p0(i64 8, ptr %3) #8
  %4 = call ptr @_PyThreadState_GET()
  store ptr %4, ptr %3, align 8, !tbaa !115
  %5 = load ptr, ptr %3, align 8, !tbaa !115
  %6 = load ptr, ptr %2, align 8, !tbaa !4
  %7 = call ptr @_PyObject_VectorcallTstate(ptr noundef %5, ptr noundef %6, ptr noundef null, i64 noundef 0, ptr noundef null)
  call void @llvm.lifetime.end.p0(i64 8, ptr %3) #8
  ret ptr %7
}

; Function Attrs: inlinehint nounwind uwtable
define internal ptr @get_functools_state(ptr noundef %0) #3 {
  %2 = alloca ptr, align 8
  %3 = alloca ptr, align 8
  store ptr %0, ptr %2, align 8, !tbaa !4
  call void @llvm.lifetime.start.p0(i64 8, ptr %3) #8
  %4 = load ptr, ptr %2, align 8, !tbaa !4
  %5 = call ptr @_PyModule_GetState(ptr noundef %4)
  store ptr %5, ptr %3, align 8, !tbaa !9
  %6 = load ptr, ptr %3, align 8, !tbaa !9
  call void @llvm.lifetime.end.p0(i64 8, ptr %3) #8
  ret ptr %6
}

; Function Attrs: nounwind uwtable
define internal i32 @_functools_exec(ptr noundef %0) #0 {
  %2 = alloca i32, align 4
  %3 = alloca ptr, align 8
  %4 = alloca ptr, align 8
  %5 = alloca i32, align 4
  %6 = alloca ptr, align 8
  %7 = alloca ptr, align 8
  store ptr %0, ptr %3, align 8, !tbaa !4
  call void @llvm.lifetime.start.p0(i64 8, ptr %4) #8
  %8 = load ptr, ptr %3, align 8, !tbaa !4
  %9 = call ptr @get_functools_state(ptr noundef %8)
  store ptr %9, ptr %4, align 8, !tbaa !10
  %10 = call ptr @_PyObject_CallNoArgs(ptr noundef @PyBaseObject_Type)
  %11 = load ptr, ptr %4, align 8, !tbaa !10
  %12 = getelementptr inbounds nuw %struct._functools_state, ptr %11, i32 0, i32 0
  store ptr %10, ptr %12, align 8, !tbaa !12
  %13 = load ptr, ptr %4, align 8, !tbaa !10
  %14 = getelementptr inbounds nuw %struct._functools_state, ptr %13, i32 0, i32 0
  %15 = load ptr, ptr %14, align 8, !tbaa !12
  %16 = icmp eq ptr %15, null
  br i1 %16, label %17, label %18

17:                                               ; preds = %1
  store i32 -1, ptr %2, align 4
  store i32 1, ptr %5, align 4
  br label %107

18:                                               ; preds = %1
  %19 = load ptr, ptr %3, align 8, !tbaa !4
  %20 = call ptr @PyType_FromModuleAndSpec(ptr noundef %19, ptr noundef @placeholder_type_spec, ptr noundef null)
  %21 = load ptr, ptr %4, align 8, !tbaa !10
  %22 = getelementptr inbounds nuw %struct._functools_state, ptr %21, i32 0, i32 1
  store ptr %20, ptr %22, align 8, !tbaa !17
  %23 = load ptr, ptr %4, align 8, !tbaa !10
  %24 = getelementptr inbounds nuw %struct._functools_state, ptr %23, i32 0, i32 1
  %25 = load ptr, ptr %24, align 8, !tbaa !17
  %26 = icmp eq ptr %25, null
  br i1 %26, label %27, label %28

27:                                               ; preds = %18
  store i32 -1, ptr %2, align 4
  store i32 1, ptr %5, align 4
  br label %107

28:                                               ; preds = %18
  %29 = load ptr, ptr %3, align 8, !tbaa !4
  %30 = load ptr, ptr %4, align 8, !tbaa !10
  %31 = getelementptr inbounds nuw %struct._functools_state, ptr %30, i32 0, i32 1
  %32 = load ptr, ptr %31, align 8, !tbaa !17
  %33 = call i32 @PyModule_AddType(ptr noundef %29, ptr noundef %32)
  %34 = icmp slt i32 %33, 0
  br i1 %34, label %35, label %36

35:                                               ; preds = %28
  store i32 -1, ptr %2, align 4
  store i32 1, ptr %5, align 4
  br label %107

36:                                               ; preds = %28
  call void @llvm.lifetime.start.p0(i64 8, ptr %6) #8
  %37 = load ptr, ptr %4, align 8, !tbaa !10
  %38 = getelementptr inbounds nuw %struct._functools_state, ptr %37, i32 0, i32 1
  %39 = load ptr, ptr %38, align 8, !tbaa !17
  %40 = call ptr @PyObject_CallNoArgs(ptr noundef %39)
  store ptr %40, ptr %6, align 8, !tbaa !4
  %41 = load ptr, ptr %6, align 8, !tbaa !4
  %42 = icmp eq ptr %41, null
  br i1 %42, label %43, label %44

43:                                               ; preds = %36
  store i32 -1, ptr %2, align 4
  store i32 1, ptr %5, align 4
  br label %106

44:                                               ; preds = %36
  %45 = load ptr, ptr %3, align 8, !tbaa !4
  %46 = load ptr, ptr %6, align 8, !tbaa !4
  %47 = call i32 @PyModule_AddObjectRef(ptr noundef %45, ptr noundef @.str.10, ptr noundef %46)
  %48 = icmp slt i32 %47, 0
  br i1 %48, label %49, label %51

49:                                               ; preds = %44
  %50 = load ptr, ptr %6, align 8, !tbaa !4
  call void @Py_DECREF(ptr noundef %50)
  store i32 -1, ptr %2, align 4
  store i32 1, ptr %5, align 4
  br label %106

51:                                               ; preds = %44
  %52 = load ptr, ptr %6, align 8, !tbaa !4
  call void @Py_DECREF(ptr noundef %52)
  %53 = load ptr, ptr %3, align 8, !tbaa !4
  %54 = call ptr @PyType_FromModuleAndSpec(ptr noundef %53, ptr noundef @partial_type_spec, ptr noundef null)
  %55 = load ptr, ptr %4, align 8, !tbaa !10
  %56 = getelementptr inbounds nuw %struct._functools_state, ptr %55, i32 0, i32 3
  store ptr %54, ptr %56, align 8, !tbaa !19
  %57 = load ptr, ptr %4, align 8, !tbaa !10
  %58 = getelementptr inbounds nuw %struct._functools_state, ptr %57, i32 0, i32 3
  %59 = load ptr, ptr %58, align 8, !tbaa !19
  %60 = icmp eq ptr %59, null
  br i1 %60, label %61, label %62

61:                                               ; preds = %51
  store i32 -1, ptr %2, align 4
  store i32 1, ptr %5, align 4
  br label %106

62:                                               ; preds = %51
  %63 = load ptr, ptr %3, align 8, !tbaa !4
  %64 = load ptr, ptr %4, align 8, !tbaa !10
  %65 = getelementptr inbounds nuw %struct._functools_state, ptr %64, i32 0, i32 3
  %66 = load ptr, ptr %65, align 8, !tbaa !19
  %67 = call i32 @PyModule_AddType(ptr noundef %63, ptr noundef %66)
  %68 = icmp slt i32 %67, 0
  br i1 %68, label %69, label %70

69:                                               ; preds = %62
  store i32 -1, ptr %2, align 4
  store i32 1, ptr %5, align 4
  br label %106

70:                                               ; preds = %62
  call void @llvm.lifetime.start.p0(i64 8, ptr %7) #8
  %71 = load ptr, ptr %3, align 8, !tbaa !4
  %72 = call ptr @PyType_FromModuleAndSpec(ptr noundef %71, ptr noundef @lru_cache_type_spec, ptr noundef null)
  store ptr %72, ptr %7, align 8, !tbaa !4
  %73 = load ptr, ptr %7, align 8, !tbaa !4
  %74 = icmp eq ptr %73, null
  br i1 %74, label %75, label %76

75:                                               ; preds = %70
  store i32 -1, ptr %2, align 4
  store i32 1, ptr %5, align 4
  br label %105

76:                                               ; preds = %70
  %77 = load ptr, ptr %3, align 8, !tbaa !4
  %78 = load ptr, ptr %7, align 8, !tbaa !4
  %79 = call i32 @PyModule_AddType(ptr noundef %77, ptr noundef %78)
  %80 = icmp slt i32 %79, 0
  br i1 %80, label %81, label %83

81:                                               ; preds = %76
  %82 = load ptr, ptr %7, align 8, !tbaa !4
  call void @Py_DECREF(ptr noundef %82)
  store i32 -1, ptr %2, align 4
  store i32 1, ptr %5, align 4
  br label %105

83:                                               ; preds = %76
  %84 = load ptr, ptr %7, align 8, !tbaa !4
  call void @Py_DECREF(ptr noundef %84)
  %85 = load ptr, ptr %3, align 8, !tbaa !4
  %86 = call ptr @PyType_FromModuleAndSpec(ptr noundef %85, ptr noundef @keyobject_type_spec, ptr noundef null)
  %87 = load ptr, ptr %4, align 8, !tbaa !10
  %88 = getelementptr inbounds nuw %struct._functools_state, ptr %87, i32 0, i32 4
  store ptr %86, ptr %88, align 8, !tbaa !20
  %89 = load ptr, ptr %4, align 8, !tbaa !10
  %90 = getelementptr inbounds nuw %struct._functools_state, ptr %89, i32 0, i32 4
  %91 = load ptr, ptr %90, align 8, !tbaa !20
  %92 = icmp eq ptr %91, null
  br i1 %92, label %93, label %94

93:                                               ; preds = %83
  store i32 -1, ptr %2, align 4
  store i32 1, ptr %5, align 4
  br label %105

94:                                               ; preds = %83
  %95 = load ptr, ptr %3, align 8, !tbaa !4
  %96 = call ptr @PyType_FromModuleAndSpec(ptr noundef %95, ptr noundef @lru_list_elem_type_spec, ptr noundef null)
  %97 = load ptr, ptr %4, align 8, !tbaa !10
  %98 = getelementptr inbounds nuw %struct._functools_state, ptr %97, i32 0, i32 5
  store ptr %96, ptr %98, align 8, !tbaa !21
  %99 = load ptr, ptr %4, align 8, !tbaa !10
  %100 = getelementptr inbounds nuw %struct._functools_state, ptr %99, i32 0, i32 5
  %101 = load ptr, ptr %100, align 8, !tbaa !21
  %102 = icmp eq ptr %101, null
  br i1 %102, label %103, label %104

103:                                              ; preds = %94
  store i32 -1, ptr %2, align 4
  store i32 1, ptr %5, align 4
  br label %105

104:                                              ; preds = %94
  store i32 0, ptr %2, align 4
  store i32 1, ptr %5, align 4
  br label %105

105:                                              ; preds = %104, %103, %93, %81, %75
  call void @llvm.lifetime.end.p0(i64 8, ptr %7) #8
  br label %106

106:                                              ; preds = %105, %69, %61, %49, %43
  call void @llvm.lifetime.end.p0(i64 8, ptr %6) #8
  br label %107

107:                                              ; preds = %106, %35, %27, %17
  call void @llvm.lifetime.end.p0(i64 8, ptr %4) #8
  %108 = load i32, ptr %2, align 4
  ret i32 %108
}