; Function Attrs: nounwind uwtable
define internal range(i32 -1, 1) i32 @_functools_exec(ptr noundef %0) #0 {
  %2 = getelementptr i8, ptr %0, i64 32
  %.val = load ptr, ptr %2, align 8, !tbaa !4
  %3 = tail call align 8 ptr @llvm.threadlocal.address.p0(ptr align 8 @_Py_tss_tstate)
  %4 = load ptr, ptr %3, align 8, !tbaa !28
  %.val.i.i.i = load ptr, ptr getelementptr inbounds nuw (i8, ptr @PyBaseObject_Type, i64 8), align 8, !tbaa !113
  %5 = getelementptr i8, ptr %.val.i.i.i, i64 168
  %.val6.i.i.i = load i64, ptr %5, align 8, !tbaa !114
  %6 = and i64 %.val6.i.i.i, 2048
  %.not.i.i.i = icmp eq i64 %6, 0
  br i1 %.not.i.i.i, label %_PyVectorcall_FunctionInline.exit.thread.i.i, label %_PyVectorcall_FunctionInline.exit.i.i

_PyVectorcall_FunctionInline.exit.i.i:            ; preds = %1
  %7 = getelementptr inbounds nuw i8, ptr %.val.i.i.i, i64 56
  %8 = load i64, ptr %7, align 8, !tbaa !120
  %9 = getelementptr i8, ptr @PyBaseObject_Type, i64 %8
  %.0.copyload.i.i.i = load ptr, ptr %9, align 1
  %10 = icmp eq ptr %.0.copyload.i.i.i, null
  br i1 %10, label %_PyVectorcall_FunctionInline.exit.thread.i.i, label %12

_PyVectorcall_FunctionInline.exit.thread.i.i:     ; preds = %_PyVectorcall_FunctionInline.exit.i.i, %1
  %11 = tail call ptr @_PyObject_MakeTpCall(ptr noundef %4, ptr noundef nonnull @PyBaseObject_Type, ptr noundef null, i64 noundef 0, ptr noundef null) #9
  br label %_PyObject_CallNoArgs.exit

12:                                               ; preds = %_PyVectorcall_FunctionInline.exit.i.i
  %13 = tail call ptr %.0.copyload.i.i.i(ptr noundef nonnull @PyBaseObject_Type, ptr noundef null, i64 noundef 0, ptr noundef null) #9
  %14 = tail call ptr @_Py_CheckFunctionResult(ptr noundef %4, ptr noundef nonnull @PyBaseObject_Type, ptr noundef %13, ptr noundef null) #9
  br label %_PyObject_CallNoArgs.exit

_PyObject_CallNoArgs.exit:                        ; preds = %_PyVectorcall_FunctionInline.exit.thread.i.i, %12
  %.0.i.i = phi ptr [ %11, %_PyVectorcall_FunctionInline.exit.thread.i.i ], [ %14, %12 ]
  store ptr %.0.i.i, ptr %.val, align 8, !tbaa !13
  %15 = icmp eq ptr %.0.i.i, null
  br i1 %15, label %Py_DECREF.exit40, label %16

16:                                               ; preds = %_PyObject_CallNoArgs.exit
  %17 = tail call ptr @PyType_FromModuleAndSpec(ptr noundef nonnull %0, ptr noundef nonnull @placeholder_type_spec, ptr noundef null) #9
  %18 = getelementptr inbounds nuw i8, ptr %.val, i64 8
  store ptr %17, ptr %18, align 8, !tbaa !15
  %19 = icmp eq ptr %17, null
  br i1 %19, label %Py_DECREF.exit40, label %20

20:                                               ; preds = %16
  %21 = tail call i32 @PyModule_AddType(ptr noundef nonnull %0, ptr noundef nonnull %17) #9
  %22 = icmp slt i32 %21, 0
  br i1 %22, label %Py_DECREF.exit40, label %23

23:                                               ; preds = %20
  %24 = load ptr, ptr %18, align 8, !tbaa !15
  %25 = tail call ptr @PyObject_CallNoArgs(ptr noundef %24) #9
  %26 = icmp eq ptr %25, null
  br i1 %26, label %Py_DECREF.exit40, label %27

27:                                               ; preds = %23
  %28 = tail call i32 @PyModule_AddObjectRef(ptr noundef nonnull %0, ptr noundef nonnull @.str.10, ptr noundef nonnull %25) #9
  %29 = icmp slt i32 %28, 0
  %30 = load i32, ptr %25, align 8, !tbaa !21
  %.not.i39 = icmp sgt i32 %30, -1
  br i1 %29, label %31, label %36

31:                                               ; preds = %27
  br i1 %.not.i39, label %32, label %Py_DECREF.exit40

32:                                               ; preds = %31
  %33 = add nsw i32 %30, -1
  store i32 %33, ptr %25, align 8, !tbaa !21
  %34 = icmp eq i32 %33, 0
  br i1 %34, label %35, label %Py_DECREF.exit40

35:                                               ; preds = %32
  tail call void @_Py_Dealloc(ptr noundef nonnull %25) #9
  br label %Py_DECREF.exit40

36:                                               ; preds = %27
  br i1 %.not.i39, label %37, label %Py_DECREF.exit38

37:                                               ; preds = %36
  %38 = add nsw i32 %30, -1
  store i32 %38, ptr %25, align 8, !tbaa !21
  %39 = icmp eq i32 %38, 0
  br i1 %39, label %40, label %Py_DECREF.exit38

40:                                               ; preds = %37
  tail call void @_Py_Dealloc(ptr noundef nonnull %25) #9
  br label %Py_DECREF.exit38

Py_DECREF.exit38:                                 ; preds = %36, %37, %40
  %41 = tail call ptr @PyType_FromModuleAndSpec(ptr noundef nonnull %0, ptr noundef nonnull @partial_type_spec, ptr noundef null) #9
  %42 = getelementptr inbounds nuw i8, ptr %.val, i64 24
  store ptr %41, ptr %42, align 8, !tbaa !17
  %43 = icmp eq ptr %41, null
  br i1 %43, label %Py_DECREF.exit40, label %44

44:                                               ; preds = %Py_DECREF.exit38
  %45 = tail call i32 @PyModule_AddType(ptr noundef nonnull %0, ptr noundef nonnull %41) #9
  %46 = icmp slt i32 %45, 0
  br i1 %46, label %Py_DECREF.exit40, label %47

47:                                               ; preds = %44
  %48 = tail call ptr @PyType_FromModuleAndSpec(ptr noundef nonnull %0, ptr noundef nonnull @lru_cache_type_spec, ptr noundef null) #9
  %49 = icmp eq ptr %48, null
  br i1 %49, label %Py_DECREF.exit40, label %50

50:                                               ; preds = %47
  %51 = tail call i32 @PyModule_AddType(ptr noundef nonnull %0, ptr noundef nonnull %48) #9
  %52 = icmp slt i32 %51, 0
  %53 = load i32, ptr %48, align 8, !tbaa !21
  %.not.i35 = icmp sgt i32 %53, -1
  br i1 %52, label %54, label %59

54:                                               ; preds = %50
  br i1 %.not.i35, label %55, label %Py_DECREF.exit40

55:                                               ; preds = %54
  %56 = add nsw i32 %53, -1
  store i32 %56, ptr %48, align 8, !tbaa !21
  %57 = icmp eq i32 %56, 0
  br i1 %57, label %58, label %Py_DECREF.exit40

58:                                               ; preds = %55
  tail call void @_Py_Dealloc(ptr noundef nonnull %48) #9
  br label %Py_DECREF.exit40

59:                                               ; preds = %50
  br i1 %.not.i35, label %60, label %Py_DECREF.exit

60:                                               ; preds = %59
  %61 = add nsw i32 %53, -1
  store i32 %61, ptr %48, align 8, !tbaa !21
  %62 = icmp eq i32 %61, 0
  br i1 %62, label %63, label %Py_DECREF.exit

63:                                               ; preds = %60
  tail call void @_Py_Dealloc(ptr noundef nonnull %48) #9
  br label %Py_DECREF.exit

Py_DECREF.exit:                                   ; preds = %59, %60, %63
  %64 = tail call ptr @PyType_FromModuleAndSpec(ptr noundef nonnull %0, ptr noundef nonnull @keyobject_type_spec, ptr noundef null) #9
  %65 = getelementptr inbounds nuw i8, ptr %.val, i64 32
  store ptr %64, ptr %65, align 8, !tbaa !18
  %66 = icmp eq ptr %64, null
  br i1 %66, label %Py_DECREF.exit40, label %67

67:                                               ; preds = %Py_DECREF.exit
  %68 = tail call ptr @PyType_FromModuleAndSpec(ptr noundef nonnull %0, ptr noundef nonnull @lru_list_elem_type_spec, ptr noundef null) #9
  %69 = getelementptr inbounds nuw i8, ptr %.val, i64 40
  store ptr %68, ptr %69, align 8, !tbaa !19
  %70 = icmp eq ptr %68, null
  %. = sext i1 %70 to i32
  br label %Py_DECREF.exit40

Py_DECREF.exit40:                                 ; preds = %58, %55, %54, %35, %32, %31, %23, %Py_DECREF.exit38, %44, %67, %Py_DECREF.exit, %47, %20, %16, %_PyObject_CallNoArgs.exit
  %.0 = phi i32 [ -1, %_PyObject_CallNoArgs.exit ], [ -1, %16 ], [ -1, %20 ], [ -1, %23 ], [ -1, %Py_DECREF.exit38 ], [ -1, %44 ], [ -1, %47 ], [ -1, %Py_DECREF.exit ], [ %., %67 ], [ -1, %31 ], [ -1, %32 ], [ -1, %35 ], [ -1, %54 ], [ -1, %55 ], [ -1, %58 ]
  ret i32 %.0
}